; ModuleID = '2/845.c'
source_filename = "2/845.c"
target datalayout = "e-m:e-p270:32:32-p271:32:32-p272:64:64-i64:64-f80:128-n8:16:32:64-S128"
target triple = "x86_64-pc-linux-gnu"

@.str = private unnamed_addr constant [3 x i8] c"%d\00", align 1
@.str.1 = private unnamed_addr constant [6 x i8] c"%d %s\00", align 1
@.str.2 = private unnamed_addr constant [4 x i8] c"%c\0A\00", align 1
@.str.3 = private unnamed_addr constant [4 x i8] c"%d\0A\00", align 1

; Function Attrs: noinline nounwind uwtable
define dso_local i32 @main() #0 {
  %1 = alloca i32, align 4
  %2 = alloca i32, align 4
  %3 = alloca i32, align 4
  %4 = alloca i32, align 4
  %5 = alloca i32, align 4
  %6 = alloca [1000 x i32], align 16
  %7 = alloca [26 x i32], align 16
  %8 = alloca i32, align 4
  %9 = alloca i32, align 4
  %10 = alloca i32, align 4
  %11 = alloca [1000 x [27 x i8]], align 16
  %12 = alloca i8, align 1
  store i32 0, i32* %1, align 4
  %13 = bitcast [26 x i32]* %7 to i8*
  call void @llvm.memset.p0i8.i64(i8* align 16 %13, i8 0, i64 104, i1 false)
  store i32 0, i32* %8, align 4
  store i32 0, i32* %10, align 4
  store i8 65, i8* %12, align 1
  %14 = call i32 (i8*, ...) @__isoc99_scanf(i8* getelementptr inbounds ([3 x i8], [3 x i8]* @.str, i64 0, i64 0), i32* %2)
  store i32 0, i32* %4, align 4
  br label %15

15:                                               ; preds = %72, %0
  %16 = load i32, i32* %4, align 4
  %17 = load i32, i32* %2, align 4
  %18 = icmp slt i32 %16, %17
  br i1 %18, label %19, label %75

19:                                               ; preds = %15
  %20 = load i32, i32* %4, align 4
  %21 = sext i32 %20 to i64
  %22 = getelementptr inbounds [1000 x i32], [1000 x i32]* %6, i64 0, i64 %21
  %23 = load i32, i32* %4, align 4
  %24 = sext i32 %23 to i64
  %25 = getelementptr inbounds [1000 x [27 x i8]], [1000 x [27 x i8]]* %11, i64 0, i64 %24
  %26 = getelementptr inbounds [27 x i8], [27 x i8]* %25, i64 0, i64 0
  %27 = call i32 (i8*, ...) @__isoc99_scanf(i8* getelementptr inbounds ([6 x i8], [6 x i8]* @.str.1, i64 0, i64 0), i32* %22, i8* %26)
  %28 = load i32, i32* %4, align 4
  %29 = sext i32 %28 to i64
  %30 = getelementptr inbounds [1000 x [27 x i8]], [1000 x [27 x i8]]* %11, i64 0, i64 %29
  %31 = getelementptr inbounds [27 x i8], [27 x i8]* %30, i64 0, i64 0
  %32 = call i64 @strlen(i8* %31) #4
  %33 = trunc i64 %32 to i32
  store i32 %33, i32* %3, align 4
  store i32 0, i32* %5, align 4
  br label %34

34:                                               ; preds = %68, %19
  %35 = load i32, i32* %5, align 4
  %36 = load i32, i32* %3, align 4
  %37 = icmp slt i32 %35, %36
  br i1 %37, label %38, label %71

38:                                               ; preds = %34
  store i8 65, i8* %12, align 1
  store i32 0, i32* %9, align 4
  br label %39

39:                                               ; preds = %64, %38
  %40 = load i8, i8* %12, align 1
  %41 = sext i8 %40 to i32
  %42 = icmp sle i32 %41, 90
  br i1 %42, label %43, label %67

43:                                               ; preds = %39
  %44 = load i32, i32* %4, align 4
  %45 = sext i32 %44 to i64
  %46 = getelementptr inbounds [1000 x [27 x i8]], [1000 x [27 x i8]]* %11, i64 0, i64 %45
  %47 = load i32, i32* %5, align 4
  %48 = sext i32 %47 to i64
  %49 = getelementptr inbounds [27 x i8], [27 x i8]* %46, i64 0, i64 %48
  %50 = load i8, i8* %49, align 1
  %51 = sext i8 %50 to i32
  %52 = load i8, i8* %12, align 1
  %53 = sext i8 %52 to i32
  %54 = icmp eq i32 %51, %53
  br i1 %54, label %55, label %61

55:                                               ; preds = %43
  %56 = load i32, i32* %9, align 4
  %57 = sext i32 %56 to i64
  %58 = getelementptr inbounds [26 x i32], [26 x i32]* %7, i64 0, i64 %57
  %59 = load i32, i32* %58, align 4
  %60 = add nsw i32 %59, 1
  store i32 %60, i32* %58, align 4
  br label %67

61:                                               ; preds = %43
  %62 = load i32, i32* %9, align 4
  %63 = add nsw i32 %62, 1
  store i32 %63, i32* %9, align 4
  br label %64

64:                                               ; preds = %61
  %65 = load i8, i8* %12, align 1
  %66 = add i8 %65, 1
  store i8 %66, i8* %12, align 1
  br label %39

67:                                               ; preds = %55, %39
  br label %68

68:                                               ; preds = %67
  %69 = load i32, i32* %5, align 4
  %70 = add nsw i32 %69, 1
  store i32 %70, i32* %5, align 4
  br label %34

71:                                               ; preds = %34
  br label %72

72:                                               ; preds = %71
  %73 = load i32, i32* %4, align 4
  %74 = add nsw i32 %73, 1
  store i32 %74, i32* %4, align 4
  br label %15

75:                                               ; preds = %15
  store i32 0, i32* %4, align 4
  br label %76

76:                                               ; preds = %93, %75
  %77 = load i32, i32* %4, align 4
  %78 = icmp slt i32 %77, 26
  br i1 %78, label %79, label %96

79:                                               ; preds = %76
  %80 = load i32, i32* %4, align 4
  %81 = sext i32 %80 to i64
  %82 = getelementptr inbounds [26 x i32], [26 x i32]* %7, i64 0, i64 %81
  %83 = load i32, i32* %82, align 4
  %84 = load i32, i32* %10, align 4
  %85 = icmp sgt i32 %83, %84
  br i1 %85, label %86, label %92

86:                                               ; preds = %79
  %87 = load i32, i32* %4, align 4
  %88 = sext i32 %87 to i64
  %89 = getelementptr inbounds [26 x i32], [26 x i32]* %7, i64 0, i64 %88
  %90 = load i32, i32* %89, align 4
  store i32 %90, i32* %10, align 4
  %91 = load i32, i32* %4, align 4
  store i32 %91, i32* %8, align 4
  br label %92

92:                                               ; preds = %86, %79
  br label %93

93:                                               ; preds = %92
  %94 = load i32, i32* %4, align 4
  %95 = add nsw i32 %94, 1
  store i32 %95, i32* %4, align 4
  br label %76

96:                                               ; preds = %76
  %97 = load i32, i32* %8, align 4
  %98 = add nsw i32 65, %97
  %99 = trunc i32 %98 to i8
  store i8 %99, i8* %12, align 1
  %100 = load i8, i8* %12, align 1
  %101 = sext i8 %100 to i32
  %102 = call i32 (i8*, ...) @printf(i8* getelementptr inbounds ([4 x i8], [4 x i8]* @.str.2, i64 0, i64 0), i32 %101)
  %103 = load i32, i32* %8, align 4
  %104 = sext i32 %103 to i64
  %105 = getelementptr inbounds [26 x i32], [26 x i32]* %7, i64 0, i64 %104
  %106 = load i32, i32* %105, align 4
  %107 = call i32 (i8*, ...) @printf(i8* getelementptr inbounds ([4 x i8], [4 x i8]* @.str.3, i64 0, i64 0), i32 %106)
  store i32 0, i32* %4, align 4
  br label %108

108:                                              ; preds = %146, %96
  %109 = load i32, i32* %4, align 4
  %110 = load i32, i32* %2, align 4
  %111 = icmp slt i32 %109, %110
  br i1 %111, label %112, label %149

112:                                              ; preds = %108
  %113 = load i32, i32* %4, align 4
  %114 = sext i32 %113 to i64
  %115 = getelementptr inbounds [1000 x [27 x i8]], [1000 x [27 x i8]]* %11, i64 0, i64 %114
  %116 = getelementptr inbounds [27 x i8], [27 x i8]* %115, i64 0, i64 0
  %117 = call i64 @strlen(i8* %116) #4
  %118 = trunc i64 %117 to i32
  store i32 %118, i32* %3, align 4
  store i32 0, i32* %5, align 4
  br label %119

119:                                              ; preds = %142, %112
  %120 = load i32, i32* %5, align 4
  %121 = load i32, i32* %3, align 4
  %122 = icmp slt i32 %120, %121
  br i1 %122, label %123, label %145

123:                                              ; preds = %119
  %124 = load i32, i32* %4, align 4
  %125 = sext i32 %124 to i64
  %126 = getelementptr inbounds [1000 x [27 x i8]], [1000 x [27 x i8]]* %11, i64 0, i64 %125
  %127 = load i32, i32* %5, align 4
  %128 = sext i32 %127 to i64
  %129 = getelementptr inbounds [27 x i8], [27 x i8]* %126, i64 0, i64 %128
  %130 = load i8, i8* %129, align 1
  %131 = sext i8 %130 to i32
  %132 = load i8, i8* %12, align 1
  %133 = sext i8 %132 to i32
  %134 = icmp eq i32 %131, %133
  br i1 %134, label %135, label %141

135:                                              ; preds = %123
  %136 = load i32, i32* %4, align 4
  %137 = sext i32 %136 to i64
  %138 = getelementptr inbounds [1000 x i32], [1000 x i32]* %6, i64 0, i64 %137
  %139 = load i32, i32* %138, align 4
  %140 = call i32 (i8*, ...) @printf(i8* getelementptr inbounds ([4 x i8], [4 x i8]* @.str.3, i64 0, i64 0), i32 %139)
  br label %145

141:                                              ; preds = %123
  br label %142

142:                                              ; preds = %141
  %143 = load i32, i32* %5, align 4
  %144 = add nsw i32 %143, 1
  store i32 %144, i32* %5, align 4
  br label %119

145:                                              ; preds = %135, %119
  br label %146

146:                                              ; preds = %145
  %147 = load i32, i32* %4, align 4
  %148 = add nsw i32 %147, 1
  store i32 %148, i32* %4, align 4
  br label %108

149:                                              ; preds = %108
  ret i32 0
}

; Function Attrs: argmemonly nounwind willreturn
declare void @llvm.memset.p0i8.i64(i8* nocapture writeonly, i8, i64, i1 immarg) #1

declare dso_local i32 @__isoc99_scanf(i8*, ...) #2

; Function Attrs: nounwind readonly
declare dso_local i64 @strlen(i8*) #3

declare dso_local i32 @printf(i8*, ...) #2


!llvm.module.flags = !{!0}
!llvm.ident = !{!1}

!0 = !{i32 1, !"wchar_size", i32 4}
!1 = !{!"clang version 10.0.0-4ubuntu1 "}
